target datalayout = "e-m:e-p270:32:32-p271:32:32-p272:64:64-i64:64-i128:128-f80:128-n8:16:32:64-S128"
target triple = "x86_64-pc-linux-gnu"

%struct.SDL_Renderer = type { ptr, ptr, ptr, ptr, ptr, ptr, ptr, ptr, ptr, ptr, ptr, ptr, ptr, ptr, ptr, ptr, ptr, ptr, ptr, ptr, ptr, ptr, ptr, ptr, ptr, ptr, ptr, ptr, ptr, ptr, i32, i8, ptr, i8, i8, i8, i64, i64, ptr, %struct.SDL_RenderViewState, %struct.SDL_FPoint, i32, i32, ptr, ptr, ptr, i32, float, float, float, float, %struct.SDL_FColor, i32, i32, i32, ptr, ptr, ptr, ptr, i32, %struct.SDL_FColor, float, %struct.SDL_Rect, %struct.SDL_Rect, i8, i8, i8, i8, ptr, i64, i64, i8, ptr, ptr, i32, ptr, i8, ptr, ptr }
%struct.SDL_RenderViewState = type { i32, i32, %struct.SDL_Rect, %struct.SDL_Rect, %struct.SDL_Rect, %struct.SDL_Rect, i8, %struct.SDL_FPoint, i32, i32, i32, %struct.SDL_FRect, %struct.SDL_FRect, %struct.SDL_FPoint, %struct.SDL_FPoint, %struct.SDL_FPoint }
%struct.SDL_FRect = type { float, float, float, float }
%struct.SDL_FPoint = type { float, float }
%struct.SDL_FColor = type { float, float, float, float }
%struct.SDL_Rect = type { i32, i32, i32, i32 }
%struct.SDL_Texture = type { i32, i32, i32, i32, i32, float, float, i32, i32, i32, %struct.SDL_FColor, %struct.SDL_RenderViewState, ptr, ptr, ptr, ptr, i32, %struct.SDL_Rect, ptr, i32, i32, ptr, ptr, ptr }

@.str.2 = private unnamed_addr constant [26 x i8] c"Parameter '%s' is invalid\00", align 1
@.str.5 = private unnamed_addr constant [9 x i8] c"renderer\00", align 1
@.str.29 = private unnamed_addr constant [56 x i8] c"Renderer's window has been destroyed, can't use further\00", align 1
@.str.99 = private unnamed_addr constant [27 x i8] c"SDL.window.SDR_white_level\00", align 1
@.str.100 = private unnamed_addr constant [24 x i8] c"SDL.window.HDR_headroom\00", align 1
@.str.101 = private unnamed_addr constant [25 x i8] c"SDL.renderer.HDR_enabled\00", align 1
@.str.102 = private unnamed_addr constant [29 x i8] c"SDL.renderer.SDR_white_point\00", align 1
@.str.103 = private unnamed_addr constant [26 x i8] c"SDL.renderer.HDR_headroom\00", align 1

; Function Attrs: nounwind uwtable
define internal void @UpdateColorScale(ptr noundef %0) #0 {
  %2 = alloca ptr, align 8
  %3 = alloca float, align 4
  store ptr %0, ptr %2, align 8
  call void @llvm.lifetime.start.p0(i64 4, ptr %3) #10
  %4 = load ptr, ptr %2, align 8
  %5 = getelementptr inbounds nuw %struct.SDL_Renderer, ptr %4, i32 0, i32 44
  %6 = load ptr, ptr %5, align 8
  %7 = icmp ne ptr %6, null
  br i1 %7, label %8, label %14

8:                                                ; preds = %1
  %9 = load ptr, ptr %2, align 8
  %10 = getelementptr inbounds nuw %struct.SDL_Renderer, ptr %9, i32 0, i32 44
  %11 = load ptr, ptr %10, align 8
  %12 = getelementptr inbounds nuw %struct.SDL_Texture, ptr %11, i32 0, i32 5
  %13 = load float, ptr %12, align 4
  store float %13, ptr %3, align 4
  br label %18

14:                                               ; preds = %1
  %15 = load ptr, ptr %2, align 8
  %16 = getelementptr inbounds nuw %struct.SDL_Renderer, ptr %15, i32 0, i32 47
  %17 = load float, ptr %16, align 4
  store float %17, ptr %3, align 4
  br label %18

18:                                               ; preds = %14, %8
  %19 = load ptr, ptr %2, align 8
  %20 = getelementptr inbounds nuw %struct.SDL_Renderer, ptr %19, i32 0, i32 49
  %21 = load float, ptr %20, align 4
  %22 = load float, ptr %3, align 4
  %23 = fmul float %21, %22
  %24 = load ptr, ptr %2, align 8
  %25 = getelementptr inbounds nuw %struct.SDL_Renderer, ptr %24, i32 0, i32 50
  store float %23, ptr %25, align 8
  call void @llvm.lifetime.end.p0(i64 4, ptr %3) #10
  ret void
}

; Function Attrs: nounwind uwtable
define hidden i32 @SDL_GetRendererProperties_REAL(ptr noundef %0) #0 {
  %2 = alloca i32, align 4
  %3 = alloca ptr, align 8
  store ptr %0, ptr %3, align 8
  %4 = load ptr, ptr %3, align 8
  %5 = call zeroext i1 @SDL_ObjectValid(ptr noundef %4, i32 noundef 2)
  br i1 %5, label %8, label %6

6:                                                ; preds = %1
  %7 = call zeroext i1 (ptr, ...) @SDL_SetError_REAL(ptr noundef @.str.2, ptr noundef @.str.5)
  store i32 0, ptr %2, align 4
  br label %28

8:                                                ; preds = %1
  %9 = load ptr, ptr %3, align 8
  %10 = getelementptr inbounds nuw %struct.SDL_Renderer, ptr %9, i32 0, i32 76
  %11 = load i8, ptr %10, align 8, !range !5, !noundef !6
  %12 = trunc i8 %11 to i1
  br i1 %12, label %13, label %15

13:                                               ; preds = %8
  %14 = call zeroext i1 (ptr, ...) @SDL_SetError_REAL(ptr noundef @.str.29)
  store i32 0, ptr %2, align 4
  br label %28

15:                                               ; preds = %8
  %16 = load ptr, ptr %3, align 8
  %17 = getelementptr inbounds nuw %struct.SDL_Renderer, ptr %16, i32 0, i32 74
  %18 = load i32, ptr %17, align 8
  %19 = icmp eq i32 %18, 0
  br i1 %19, label %20, label %24

20:                                               ; preds = %15
  %21 = call i32 @SDL_CreateProperties_REAL()
  %22 = load ptr, ptr %3, align 8
  %23 = getelementptr inbounds nuw %struct.SDL_Renderer, ptr %22, i32 0, i32 74
  store i32 %21, ptr %23, align 8
  br label %24

24:                                               ; preds = %20, %15
  %25 = load ptr, ptr %3, align 8
  %26 = getelementptr inbounds nuw %struct.SDL_Renderer, ptr %25, i32 0, i32 74
  %27 = load i32, ptr %26, align 8
  store i32 %27, ptr %2, align 4
  br label %28

28:                                               ; preds = %24, %13, %6
  %29 = load i32, ptr %2, align 4
  ret i32 %29
}

; Function Attrs: nounwind uwtable
define internal void @UpdateHDRProperties(ptr noundef %0) #0 {
  %2 = alloca ptr, align 8
  %3 = alloca i32, align 4
  %4 = alloca i32, align 4
  %5 = alloca i32, align 4
  store ptr %0, ptr %2, align 8
  call void @llvm.lifetime.start.p0(i64 4, ptr %3) #10
  call void @llvm.lifetime.start.p0(i64 4, ptr %4) #10
  %6 = load ptr, ptr %2, align 8
  %7 = getelementptr inbounds nuw %struct.SDL_Renderer, ptr %6, i32 0, i32 32
  %8 = load ptr, ptr %7, align 8
  %9 = call i32 @SDL_GetWindowProperties_REAL(ptr noundef %8)
  store i32 %9, ptr %3, align 4
  %10 = load i32, ptr %3, align 4
  %11 = icmp ne i32 %10, 0
  br i1 %11, label %13, label %12

12:                                               ; preds = %1
  store i32 1, ptr %5, align 4
  br label %61

13:                                               ; preds = %1
  %14 = load ptr, ptr %2, align 8
  %15 = call i32 @SDL_GetRendererProperties_REAL(ptr noundef %14)
  store i32 %15, ptr %4, align 4
  %16 = load i32, ptr %4, align 4
  %17 = icmp ne i32 %16, 0
  br i1 %17, label %19, label %18

18:                                               ; preds = %13
  store i32 1, ptr %5, align 4
  br label %61

19:                                               ; preds = %13
  %20 = load ptr, ptr %2, align 8
  %21 = getelementptr inbounds nuw %struct.SDL_Renderer, ptr %20, i32 0, i32 46
  %22 = load i32, ptr %21, align 8
  %23 = icmp eq i32 %22, 301991168
  br i1 %23, label %24, label %33

24:                                               ; preds = %19
  %25 = load i32, ptr %3, align 4
  %26 = call float @SDL_GetFloatProperty_REAL(i32 noundef %25, ptr noundef @.str.99, float noundef 1.000000e+00)
  %27 = load ptr, ptr %2, align 8
  %28 = getelementptr inbounds nuw %struct.SDL_Renderer, ptr %27, i32 0, i32 47
  store float %26, ptr %28, align 4
  %29 = load i32, ptr %3, align 4
  %30 = call float @SDL_GetFloatProperty_REAL(i32 noundef %29, ptr noundef @.str.100, float noundef 1.000000e+00)
  %31 = load ptr, ptr %2, align 8
  %32 = getelementptr inbounds nuw %struct.SDL_Renderer, ptr %31, i32 0, i32 48
  store float %30, ptr %32, align 8
  br label %38

33:                                               ; preds = %19
  %34 = load ptr, ptr %2, align 8
  %35 = getelementptr inbounds nuw %struct.SDL_Renderer, ptr %34, i32 0, i32 47
  store float 1.000000e+00, ptr %35, align 4
  %36 = load ptr, ptr %2, align 8
  %37 = getelementptr inbounds nuw %struct.SDL_Renderer, ptr %36, i32 0, i32 48
  store float 1.000000e+00, ptr %37, align 8
  br label %38

38:                                               ; preds = %33, %24
  %39 = load ptr, ptr %2, align 8
  %40 = getelementptr inbounds nuw %struct.SDL_Renderer, ptr %39, i32 0, i32 48
  %41 = load float, ptr %40, align 8
  %42 = fcmp ogt float %41, 1.000000e+00
  br i1 %42, label %43, label %46

43:                                               ; preds = %38
  %44 = load i32, ptr %4, align 4
  %45 = call zeroext i1 @SDL_SetBooleanProperty_REAL(i32 noundef %44, ptr noundef @.str.101, i1 noundef zeroext true)
  br label %49

46:                                               ; preds = %38
  %47 = load i32, ptr %4, align 4
  %48 = call zeroext i1 @SDL_SetBooleanProperty_REAL(i32 noundef %47, ptr noundef @.str.101, i1 noundef zeroext false)
  br label %49

49:                                               ; preds = %46, %43
  %50 = load i32, ptr %4, align 4
  %51 = load ptr, ptr %2, align 8
  %52 = getelementptr inbounds nuw %struct.SDL_Renderer, ptr %51, i32 0, i32 47
  %53 = load float, ptr %52, align 4
  %54 = call zeroext i1 @SDL_SetFloatProperty_REAL(i32 noundef %50, ptr noundef @.str.102, float noundef %53)
  %55 = load i32, ptr %4, align 4
  %56 = load ptr, ptr %2, align 8
  %57 = getelementptr inbounds nuw %struct.SDL_Renderer, ptr %56, i32 0, i32 48
  %58 = load float, ptr %57, align 8
  %59 = call zeroext i1 @SDL_SetFloatProperty_REAL(i32 noundef %55, ptr noundef @.str.103, float noundef %58)
  %60 = load ptr, ptr %2, align 8
  call void @UpdateColorScale(ptr noundef %60)
  store i32 0, ptr %5, align 4
  br label %61

61:                                               ; preds = %49, %18, %12
  call void @llvm.lifetime.end.p0(i64 4, ptr %4) #10
  call void @llvm.lifetime.end.p0(i64 4, ptr %3) #10
  %62 = load i32, ptr %5, align 4
  switch i32 %62, label %64 [
    i32 0, label %63
    i32 1, label %63
  ]

63:                                               ; preds = %61, %61
  ret void

64:                                               ; preds = %61
  unreachable
}