; Function Attrs: nounwind uwtable
define internal fastcc void @UpdateHDRProperties(ptr noundef %0) unnamed_addr #0 {
  %2 = getelementptr inbounds nuw i8, ptr %0, i64 248
  %3 = load ptr, ptr %2, align 8
  %4 = tail call i32 @SDL_GetWindowProperties_REAL(ptr noundef %3) #15
  %.not = icmp eq i32 %4, 0
  br i1 %.not, label %SDL_GetRendererProperties_REAL.exit.thread, label %5

5:                                                ; preds = %1
  %6 = tail call zeroext i1 @SDL_ObjectValid(ptr noundef nonnull %0, i32 noundef 2) #15
  br i1 %6, label %9, label %7

7:                                                ; preds = %5
  %8 = tail call zeroext i1 (ptr, ...) @SDL_SetError_REAL(ptr noundef nonnull @.str.2, ptr noundef nonnull @.str.5) #15
  br label %SDL_GetRendererProperties_REAL.exit.thread

9:                                                ; preds = %5
  %10 = getelementptr inbounds nuw i8, ptr %0, i64 688
  %11 = load i8, ptr %10, align 8, !range !3, !noundef !4
  %12 = trunc nuw i8 %11 to i1
  br i1 %12, label %13, label %15

13:                                               ; preds = %9
  %14 = tail call zeroext i1 (ptr, ...) @SDL_SetError_REAL(ptr noundef nonnull @.str.29) #15
  br label %SDL_GetRendererProperties_REAL.exit.thread

15:                                               ; preds = %9
  %16 = getelementptr inbounds nuw i8, ptr %0, i64 672
  %17 = load i32, ptr %16, align 8
  %18 = icmp eq i32 %17, 0
  br i1 %18, label %SDL_GetRendererProperties_REAL.exit, label %SDL_GetRendererProperties_REAL.exit.thread23

SDL_GetRendererProperties_REAL.exit:              ; preds = %15
  %19 = tail call i32 @SDL_CreateProperties_REAL() #15
  store i32 %19, ptr %16, align 8
  %.not19 = icmp eq i32 %19, 0
  br i1 %.not19, label %SDL_GetRendererProperties_REAL.exit.thread, label %SDL_GetRendererProperties_REAL.exit.thread23

SDL_GetRendererProperties_REAL.exit.thread23:     ; preds = %15, %SDL_GetRendererProperties_REAL.exit
  %.0.i26 = phi i32 [ %19, %SDL_GetRendererProperties_REAL.exit ], [ %17, %15 ]
  %20 = getelementptr inbounds nuw i8, ptr %0, i64 480
  %21 = load i32, ptr %20, align 8
  %22 = icmp eq i32 %21, 301991168
  br i1 %22, label %25, label %.thread

.thread:                                          ; preds = %SDL_GetRendererProperties_REAL.exit.thread23
  %23 = getelementptr inbounds nuw i8, ptr %0, i64 484
  store float 1.000000e+00, ptr %23, align 4
  %24 = getelementptr inbounds nuw i8, ptr %0, i64 488
  store float 1.000000e+00, ptr %24, align 8
  br label %32

25:                                               ; preds = %SDL_GetRendererProperties_REAL.exit.thread23
  %26 = tail call float @SDL_GetFloatProperty_REAL(i32 noundef %4, ptr noundef nonnull @.str.99, float noundef 1.000000e+00) #15
  %27 = getelementptr inbounds nuw i8, ptr %0, i64 484
  store float %26, ptr %27, align 4
  %28 = tail call float @SDL_GetFloatProperty_REAL(i32 noundef %4, ptr noundef nonnull @.str.100, float noundef 1.000000e+00) #15
  %29 = getelementptr inbounds nuw i8, ptr %0, i64 488
  store float %28, ptr %29, align 8
  %30 = fcmp ogt float %28, 1.000000e+00
  br i1 %30, label %32, label %31

31:                                               ; preds = %25
  br label %32

32:                                               ; preds = %.thread, %25, %31
  %.sink = phi i1 [ true, %25 ], [ false, %.thread ], [ false, %31 ]
  %33 = phi ptr [ %29, %25 ], [ %24, %.thread ], [ %29, %31 ]
  %34 = tail call zeroext i1 @SDL_SetBooleanProperty_REAL(i32 noundef %.0.i26, ptr noundef nonnull @.str.101, i1 noundef zeroext %.sink) #15
  %35 = getelementptr inbounds nuw i8, ptr %0, i64 484
  %36 = load float, ptr %35, align 4
  %37 = tail call zeroext i1 @SDL_SetFloatProperty_REAL(i32 noundef %.0.i26, ptr noundef nonnull @.str.102, float noundef %36) #15
  %38 = load float, ptr %33, align 8
  %39 = tail call zeroext i1 @SDL_SetFloatProperty_REAL(i32 noundef %.0.i26, ptr noundef nonnull @.str.103, float noundef %38) #15
  %40 = getelementptr inbounds nuw i8, ptr %0, i64 464
  %41 = load ptr, ptr %40, align 8
  %.not.i = icmp eq ptr %41, null
  %42 = getelementptr inbounds nuw i8, ptr %41, i64 20
  %.0.in.i = select i1 %.not.i, ptr %35, ptr %42
  %.0.i20 = load float, ptr %.0.in.i, align 4
  %43 = getelementptr inbounds nuw i8, ptr %0, i64 492
  %44 = load float, ptr %43, align 4
  %45 = fmul float %.0.i20, %44
  %46 = getelementptr inbounds nuw i8, ptr %0, i64 496
  store float %45, ptr %46, align 8
  br label %SDL_GetRendererProperties_REAL.exit.thread

SDL_GetRendererProperties_REAL.exit.thread:       ; preds = %7, %13, %SDL_GetRendererProperties_REAL.exit, %1, %32
  ret void
}